	.file	"pbmsrch_small.c"
# GNU C (Ubuntu 4.8.4-2ubuntu1~14.04) version 4.8.4 (x86_64-linux-gnu)
#	compiled by GNU C version 4.8.4, GMP version 5.1.3, MPFR version 3.1.2-p3, MPC version 1.0.1
# GGC heuristics: --param ggc-min-expand=100 --param ggc-min-heapsize=131072
# options passed:  -imultiarch x86_64-linux-gnu pbmsrch_small.c
# -mtune=generic -march=x86-64 -auxbase-strip test.s -g -O2 -fverbose-asm
# -fstack-protector -Wformat -Wformat-security
# options enabled:  -faggressive-loop-optimizations
# -fasynchronous-unwind-tables -fauto-inc-dec -fbranch-count-reg
# -fcaller-saves -fcombine-stack-adjustments -fcommon -fcompare-elim
# -fcprop-registers -fcrossjumping -fcse-follow-jumps -fdefer-pop
# -fdelete-null-pointer-checks -fdevirtualize -fdwarf2-cfi-asm
# -fearly-inlining -feliminate-unused-debug-types -fexpensive-optimizations
# -fforward-propagate -ffunction-cse -fgcse -fgcse-lm -fgnu-runtime
# -fgnu-unique -fguess-branch-probability -fhoist-adjacent-loads -fident
# -fif-conversion -fif-conversion2 -findirect-inlining -finline
# -finline-atomics -finline-functions-called-once -finline-small-functions
# -fipa-cp -fipa-profile -fipa-pure-const -fipa-reference -fipa-sra
# -fira-hoist-pressure -fira-share-save-slots -fira-share-spill-slots
# -fivopts -fkeep-static-consts -fleading-underscore -fmath-errno
# -fmerge-constants -fmerge-debug-strings -fmove-loop-invariants
# -fomit-frame-pointer -foptimize-register-move -foptimize-sibling-calls
# -foptimize-strlen -fpartial-inlining -fpeephole -fpeephole2
# -fprefetch-loop-arrays -free -freg-struct-return -fregmove
# -freorder-blocks -freorder-functions -frerun-cse-after-loop
# -fsched-critical-path-heuristic -fsched-dep-count-heuristic
# -fsched-group-heuristic -fsched-interblock -fsched-last-insn-heuristic
# -fsched-rank-heuristic -fsched-spec -fsched-spec-insn-heuristic
# -fsched-stalled-insns-dep -fschedule-insns2 -fshow-column -fshrink-wrap
# -fsigned-zeros -fsplit-ivs-in-unroller -fsplit-wide-types
# -fstack-protector -fstrict-aliasing -fstrict-overflow
# -fstrict-volatile-bitfields -fsync-libcalls -fthread-jumps
# -ftoplevel-reorder -ftrapping-math -ftree-bit-ccp -ftree-builtin-call-dce
# -ftree-ccp -ftree-ch -ftree-coalesce-vars -ftree-copy-prop
# -ftree-copyrename -ftree-cselim -ftree-dce -ftree-dominator-opts
# -ftree-dse -ftree-forwprop -ftree-fre -ftree-loop-if-convert
# -ftree-loop-im -ftree-loop-ivcanon -ftree-loop-optimize
# -ftree-parallelize-loops= -ftree-phiprop -ftree-pre -ftree-pta
# -ftree-reassoc -ftree-scev-cprop -ftree-sink -ftree-slp-vectorize
# -ftree-slsr -ftree-sra -ftree-switch-conversion -ftree-tail-merge
# -ftree-ter -ftree-vect-loop-version -ftree-vrp -funit-at-a-time
# -funwind-tables -fvar-tracking -fvar-tracking-assignments -fverbose-asm
# -fzero-initialized-in-bss -m128bit-long-double -m64 -m80387
# -maccumulate-outgoing-args -malign-stringops -mfancy-math-387
# -mfp-ret-in-387 -mfxsr -mglibc -mieee-fp -mlong-double-80 -mmmx -mno-sse4
# -mpush-args -mred-zone -msse -msse2 -mtls-direct-seg-refs

	.text
.Ltext0:
	.p2align 4,,15
	.globl	init_search
	.type	init_search, @function
init_search:
.LFB24:
	.file 1 "pbmsrch_small.c"
	.loc 1 28 0
	.cfi_startproc
.LVL0:
	pushq	%rbx	#
	.cfi_def_cfa_offset 16
	.cfi_offset 3, -16
	.loc 1 28 0
	movq	%rdi, %rbx	# string, string
	.loc 1 31 0
	call	strlen	#
.LVL1:
	.loc 1 32 0
	xorl	%edx, %edx	# i
	.loc 1 31 0
	movq	%rax, len(%rip)	# tmp93, len
.LVL2:
	.p2align 4,,10
	.p2align 3
.L3:
	.loc 1 33 0 discriminator 2
	movq	%rax, table(,%rdx,8)	# tmp93, MEM[symbol: table, index: i_22, step: 8, offset: 0B]
	.loc 1 32 0 discriminator 2
	addq	$1, %rdx	#, i
.LVL3:
	cmpq	$256, %rdx	#, i
	jne	.L3	#,
.LVL4:
	.loc 1 34 0 discriminator 1
	xorw	%dx, %dx	#
	testq	%rax, %rax	# tmp93
	leaq	-1(%rax), %rdi	#, D.3014
	je	.L5	#,
.LVL5:
	.p2align 4,,10
	.p2align 3
.L7:
	.loc 1 35 0 discriminator 2
	movzbl	(%rbx,%rdx), %ecx	# MEM[base: string_6(D), index: i_3, offset: 0B], D.3017
	movq	%rdi, %rsi	# D.3014, tmp99
	subq	%rdx, %rsi	# i, tmp99
	.loc 1 34 0 discriminator 2
	addq	$1, %rdx	#, i
.LVL6:
	cmpq	%rax, %rdx	# tmp93, i
	movq	%rsi, table(,%rcx,8)	# tmp99, table
	jne	.L7	#,
.LVL7:
.L5:
	.loc 1 36 0
	movq	%rbx, findme(%rip)	# string, findme
	.loc 1 37 0
	popq	%rbx	#
	.cfi_def_cfa_offset 8
.LVL8:
	ret
	.cfi_endproc
.LFE24:
	.size	init_search, .-init_search
	.p2align 4,,15
	.globl	strsearch
	.type	strsearch, @function
strsearch:
.LFB25:
	.loc 1 44 0
	.cfi_startproc
.LVL9:
	pushq	%r15	#
	.cfi_def_cfa_offset 16
	.cfi_offset 15, -16
	pushq	%r14	#
	.cfi_def_cfa_offset 24
	.cfi_offset 14, -24
	movq	%rdi, %r14	# string, string
	pushq	%r13	#
	.cfi_def_cfa_offset 32
	.cfi_offset 13, -32
	pushq	%r12	#
	.cfi_def_cfa_offset 40
	.cfi_offset 12, -40
	pushq	%rbp	#
	.cfi_def_cfa_offset 48
	.cfi_offset 6, -48
	pushq	%rbx	#
	.cfi_def_cfa_offset 56
	.cfi_offset 3, -56
	subq	$24, %rsp	#,
	.cfi_def_cfa_offset 80
	.loc 1 46 0
	movq	len(%rip), %r12	# len, len.2
	.loc 1 48 0
	call	strlen	#
.LVL10:
	movq	%rax, %r15	#, tmp80
	.loc 1 46 0
	leaq	-1(%r12), %rbx	#, pos
.LVL11:
	.loc 1 50 0
	cmpq	%rax, %rbx	# tmp80, pos
	jnb	.L22	#,
	.loc 1 59 0
	movq	findme(%rip), %rax	# findme, findme.3
.LVL12:
	movl	$1, %r13d	#, D.3025
	subq	%r12, %r13	# len.2, D.3025
	movq	%rax, 8(%rsp)	# findme.3, %sfp
	.p2align 4,,10
	.p2align 3
.L13:
	.loc 1 52 0 discriminator 1
	cmpq	%rbx, %r15	# pos, tmp80
	jbe	.L14	#,
	.loc 1 53 0
	movzbl	(%r14,%rbx), %eax	# *_33, D.3024
.LVL13:
	movq	table(,%rax,8), %rbp	# table, shift
	.loc 1 52 0
	testq	%rbp, %rbp	# shift
	jne	.L18	#,
	jmp	.L19	#
.LVL14:
	.p2align 4,,10
	.p2align 3
.L27:
	.loc 1 53 0 discriminator 2
	movzbl	(%r14,%rbx), %ecx	# *_13, D.3024
.LVL15:
	movq	table(,%rcx,8), %rbp	# table, shift
	.loc 1 52 0 discriminator 2
	testq	%rbp, %rbp	# shift
	je	.L19	#,
.LVL16:
.L18:
	.loc 1 55 0
	addq	%rbp, %rbx	# shift, pos
.LVL17:
	.loc 1 52 0
	cmpq	%rbx, %r15	# pos, tmp80
	ja	.L27	#,
.L14:
	.loc 1 57 0
	testq	%rbp, %rbp	# shift
	je	.L19	#,
.L17:
	.loc 1 50 0 discriminator 1
	cmpq	%rbx, %r15	# pos, tmp80
	ja	.L13	#,
.L22:
	.loc 1 68 0
	addq	$24, %rsp	#,
	.cfi_remember_state
	.cfi_def_cfa_offset 56
	.loc 1 67 0
	xorl	%eax, %eax	# D.3020
	.loc 1 68 0
	popq	%rbx	#
	.cfi_def_cfa_offset 48
.LVL18:
	popq	%rbp	#
	.cfi_def_cfa_offset 40
	popq	%r12	#
	.cfi_def_cfa_offset 32
	popq	%r13	#
	.cfi_def_cfa_offset 24
	popq	%r14	#
	.cfi_def_cfa_offset 16
.LVL19:
	popq	%r15	#
	.cfi_def_cfa_offset 8
.LVL20:
	ret
.LVL21:
	.p2align 4,,10
	.p2align 3
.L19:
	.cfi_restore_state
	.loc 1 59 0
	leaq	0(%r13,%rbx), %rbp	#, D.3026
	movq	8(%rsp), %rdi	# %sfp,
	movq	%r12, %rdx	# len.2,
	addq	%r14, %rbp	# string, here
.LVL22:
	movq	%rbp, %rsi	# here,
	call	strncmp	#
.LVL23:
	testl	%eax, %eax	# tmp88
	je	.L21	#,
	.loc 1 64 0
	addq	$1, %rbx	#, pos
.LVL24:
	xorl	%ebp, %ebp	# shift
.LVL25:
	jmp	.L17	#
.LVL26:
.L21:
	.loc 1 68 0
	addq	$24, %rsp	#,
	.cfi_def_cfa_offset 56
	.loc 1 59 0
	movq	%rbp, %rax	# here, D.3020
	.loc 1 68 0
	popq	%rbx	#
	.cfi_def_cfa_offset 48
.LVL27:
	popq	%rbp	#
	.cfi_def_cfa_offset 40
.LVL28:
	popq	%r12	#
	.cfi_def_cfa_offset 32
	popq	%r13	#
	.cfi_def_cfa_offset 24
	popq	%r14	#
	.cfi_def_cfa_offset 16
.LVL29:
	popq	%r15	#
	.cfi_def_cfa_offset 8
.LVL30:
	ret
	.cfi_endproc
.LFE25:
	.size	strsearch, .-strsearch
	.section	.rodata.str1.1,"aMS",@progbits,1
.LC108:
	.string	" not"
.LC109:
	.string	"\"%s\" is%s in \"%s\""
.LC110:
	.string	""
.LC111:
	.string	" [\"%s\"]"
.LC0:
	.string	"abb"
.LC1:
	.string	"you"
.LC2:
	.string	"not"
.LC3:
	.string	"it"
.LC4:
	.string	"dad"
.LC5:
	.string	"yoo"
.LC6:
	.string	"hoo"
.LC7:
	.string	"oo"
.LC8:
	.string	"oh"
.LC9:
	.string	"xx"
.LC10:
	.string	"x"
.LC11:
	.string	"field"
.LC12:
	.string	"new"
.LC13:
	.string	"row"
.LC14:
	.string	"regime"
.LC15:
	.string	"boom"
.LC16:
	.string	"that"
.LC17:
	.string	"impact"
.LC18:
	.string	"and"
.LC19:
	.string	"zoom"
.LC20:
	.string	"texture"
.LC21:
	.string	"magnet"
.LC22:
	.string	"doom"
.LC23:
	.string	"loom"
.LC24:
	.string	"freq"
.LC25:
	.string	"current"
.LC26:
	.string	"phase"
.LC27:
	.string	"images"
.LC28:
	.string	"appears"
.LC29:
	.string	"conductor"
.LC30:
	.string	"wavez"
.LC31:
	.string	"normal"
.LC32:
	.string	"free"
.LC33:
	.string	"termed"
.LC34:
	.string	"provide"
.LC35:
	.string	"for"
.LC36:
	.string	"struct"
.LC37:
	.string	"about"
.LC38:
	.string	"have"
.LC39:
	.string	"proper"
.LC40:
	.string	"involve"
.LC41:
	.string	"describedly"
.LC42:
	.string	"thats"
.LC43:
	.string	"spaces"
.LC44:
	.string	"circumstance"
.LC45:
	.string	"the"
.LC46:
	.string	"member"
.LC47:
	.string	"such"
.LC48:
	.string	"guide"
.LC49:
	.string	"regard"
.LC50:
	.string	"officers"
.LC51:
	.string	"implement"
.LC52:
	.string	"principalities"
	.section	.rodata
	.align 32
.LC106:
	.quad	.LC0
	.quad	.LC1
	.quad	.LC2
	.quad	.LC3
	.quad	.LC4
	.quad	.LC5
	.quad	.LC6
	.quad	.LC7
	.quad	.LC8
	.quad	.LC9
	.quad	.LC9
	.quad	.LC10
	.quad	.LC10
	.quad	.LC11
	.quad	.LC12
	.quad	.LC13
	.quad	.LC14
	.quad	.LC15
	.quad	.LC16
	.quad	.LC17
	.quad	.LC18
	.quad	.LC19
	.quad	.LC20
	.quad	.LC21
	.quad	.LC22
	.quad	.LC23
	.quad	.LC24
	.quad	.LC25
	.quad	.LC26
	.quad	.LC27
	.quad	.LC28
	.quad	.LC26
	.quad	.LC29
	.quad	.LC30
	.quad	.LC31
	.quad	.LC32
	.quad	.LC33
	.quad	.LC34
	.quad	.LC35
	.quad	.LC18
	.quad	.LC36
	.quad	.LC37
	.quad	.LC38
	.quad	.LC39
	.quad	.LC40
	.quad	.LC41
	.quad	.LC42
	.quad	.LC43
	.quad	.LC44
	.quad	.LC45
	.quad	.LC46
	.quad	.LC47
	.quad	.LC48
	.quad	.LC49
	.quad	.LC50
	.quad	.LC51
	.quad	.LC52
	.quad	0
	.section	.rodata.str1.1
.LC54:
	.string	"cabbie"
.LC55:
	.string	"your"
.LC56:
	.string	"It isn't here"
.LC57:
	.string	"But it is here"
.LC58:
	.string	"hodad"
.LC59:
	.string	"yoohoo"
.LC60:
	.string	"."
	.section	.rodata.str1.8,"aMS",@progbits,1
	.align 8
.LC61:
	.string	"In recent years, the field of photonic "
	.section	.rodata.str1.1
.LC62:
	.string	"crystals has found new"
	.section	.rodata.str1.8
	.align 8
.LC63:
	.string	"applications in the RF and microwave"
	.align 8
.LC64:
	.string	"regime. A new type of metallic"
	.align 8
.LC65:
	.string	"electromagnetic crystal has been"
	.section	.rodata.str1.1
.LC66:
	.string	"developed that is having a"
	.section	.rodata.str1.8
	.align 8
.LC67:
	.string	"significant impact on the field of"
	.section	.rodata.str1.1
.LC68:
	.string	"antennas. It consists of a"
	.section	.rodata.str1.8
	.align 8
.LC69:
	.string	"conductive surface, covered with a"
	.align 8
.LC70:
	.string	"special texture which alters its"
	.align 8
.LC71:
	.string	"electromagnetic properties. Made of solid"
	.section	.rodata.str1.1
.LC72:
	.string	"metal, the structure"
	.section	.rodata.str1.8
	.align 8
.LC73:
	.string	"conducts DC currents, but over a"
	.align 8
.LC74:
	.string	"particular frequency range it does"
	.align 8
.LC75:
	.string	"not conduct AC currents. It does not"
	.align 8
.LC76:
	.string	"reverse the phase of reflected"
	.align 8
.LC77:
	.string	"waves, and the effective image currents"
	.section	.rodata.str1.1
.LC78:
	.string	"appear in-phase, rather than"
	.section	.rodata.str1.8
	.align 8
.LC79:
	.string	"out-of-phase as they are on normal"
	.align 8
.LC80:
	.string	"conductors. Furthermore, surface"
	.align 8
.LC81:
	.string	"waves do not propagate, and instead"
	.section	.rodata.str1.1
.LC82:
	.string	"radiate efficiently into free"
	.section	.rodata.str1.8
	.align 8
.LC83:
	.string	"space. This new material, termed a"
	.align 8
.LC84:
	.string	"high-impedance surface, provides"
	.align 8
.LC85:
	.string	"a useful new ground plane for novel"
	.align 8
.LC86:
	.string	"low-profile antennas and other"
	.section	.rodata.str1.1
.LC87:
	.string	"electromagnetic structures."
	.section	.rodata.str1.8
	.align 8
.LC88:
	.string	"The recent protests about the Michigamua"
	.align 8
.LC89:
	.string	"student organization have raised an"
	.align 8
.LC90:
	.string	"important question as to the proper nature"
	.align 8
.LC91:
	.string	"and scope of University involvement"
	.align 8
.LC92:
	.string	"with student organizations. Accordingly"
	.align 8
.LC93:
	.string	"the panel described in my Statement of"
	.align 8
.LC94:
	.string	"February 25, 2000 that is considering the"
	.align 8
.LC95:
	.string	"question of privileged space also will"
	.align 8
.LC96:
	.string	"consider under what circumstances and in"
	.section	.rodata.str1.1
.LC97:
	.string	"what ways the University, its"
	.section	.rodata.str1.8
	.align 8
.LC98:
	.string	"administrators and faculty members should"
	.align 8
.LC99:
	.string	"be associated with such organizations"
	.align 8
.LC100:
	.string	"and it will recommend guiding principles"
	.align 8
.LC101:
	.string	"in this regard. The University's"
	.align 8
.LC102:
	.string	"Executive Officers and I will then decide"
	.align 8
.LC103:
	.string	"whether and how to implement such"
	.section	.rodata.str1.1
.LC104:
	.string	"principles."
	.section	.rodata
	.align 32
.LC107:
	.quad	.LC54
	.quad	.LC55
	.quad	.LC56
	.quad	.LC57
	.quad	.LC58
	.quad	.LC59
	.quad	.LC59
	.quad	.LC59
	.quad	.LC59
	.quad	.LC59
	.quad	.LC9
	.quad	.LC10
	.quad	.LC60
	.quad	.LC61
	.quad	.LC62
	.quad	.LC63
	.quad	.LC64
	.quad	.LC65
	.quad	.LC66
	.quad	.LC67
	.quad	.LC68
	.quad	.LC69
	.quad	.LC70
	.quad	.LC71
	.quad	.LC72
	.quad	.LC73
	.quad	.LC74
	.quad	.LC75
	.quad	.LC76
	.quad	.LC77
	.quad	.LC78
	.quad	.LC79
	.quad	.LC80
	.quad	.LC81
	.quad	.LC82
	.quad	.LC83
	.quad	.LC84
	.quad	.LC85
	.quad	.LC86
	.quad	.LC87
	.quad	.LC88
	.quad	.LC89
	.quad	.LC90
	.quad	.LC91
	.quad	.LC92
	.quad	.LC93
	.quad	.LC94
	.quad	.LC95
	.quad	.LC96
	.quad	.LC97
	.quad	.LC98
	.quad	.LC99
	.quad	.LC100
	.quad	.LC101
	.quad	.LC102
	.quad	.LC103
	.quad	.LC104
	.section	.text.startup,"ax",@progbits
	.p2align 4,,15
	.globl	main
	.type	main, @function
main:
.LFB50:
	.loc 1 73 0
	.cfi_startproc
	pushq	%r15	#
	.cfi_def_cfa_offset 16
	.cfi_offset 15, -16
	.loc 1 75 0
	movl	$.LC106, %esi	#, tmp66
	movl	$58, %ecx	#, tmp67
	.loc 1 73 0
	pushq	%r14	#
	.cfi_def_cfa_offset 24
	.cfi_offset 14, -24
	pushq	%r13	#
	.cfi_def_cfa_offset 32
	.cfi_offset 13, -32
	pushq	%r12	#
	.cfi_def_cfa_offset 40
	.cfi_offset 12, -40
	pushq	%rbp	#
	.cfi_def_cfa_offset 48
	.cfi_offset 6, -48
	pushq	%rbx	#
	.cfi_def_cfa_offset 56
	.cfi_offset 3, -56
	subq	$936, %rsp	#,
	.cfi_def_cfa_offset 992
	.loc 1 75 0
	leaq	464(%rsp), %r15	#, tmp75
	.loc 1 98 0
	movq	%rsp, %r14	#, tmp74
	.loc 1 75 0
	movq	%r15, %rdi	# tmp75, tmp65
	rep movsq
	.loc 1 98 0
	movl	$.LC107, %esi	#, tmp69
	movq	%rsp, %rdi	# tmp74, tmp68
	.loc 1 149 0
	movq	464(%rsp), %rbx	# find_strings, D.3038
	testq	%rbx, %rbx	# D.3038
	.loc 1 98 0
	movb	$57, %cl	#,
	rep movsq
.LVL31:
	.loc 1 149 0
	je	.L36	#,
	xorl	%ebp, %ebp	# ivtmp.38
	jmp	.L33	#
.LVL32:
	.p2align 4,,10
	.p2align 3
.L30:
.LBB8:
.LBB9:
	.file 2 "/usr/include/x86_64-linux-gnu/bits/stdio2.h"
	.loc 2 104 0
	movq	%rbx, %rdx	# D.3038,
	movl	$.LC109, %esi	#,
	movl	$1, %edi	#,
	movq	%r12, %r8	# D.3038,
	movl	$.LC110, %ecx	#,
	xorl	%eax, %eax	#
.LVL33:
	call	__printf_chk	#
.LVL34:
.LBE9:
.LBE8:
.LBB11:
.LBB12:
	movq	%r13, %rdx	# here,
	movl	$.LC111, %esi	#,
	movl	$1, %edi	#,
	xorl	%eax, %eax	#
	call	__printf_chk	#
.LVL35:
.L34:
.LBE12:
.LBE11:
.LBB13:
.LBB14:
	.file 3 "/usr/include/x86_64-linux-gnu/bits/stdio.h"
	.loc 3 81 0
	movq	stdout(%rip), %rsi	# stdout,
	addq	$8, %rbp	#, ivtmp.38
	movl	$10, %edi	#,
	call	_IO_putc	#
.LVL36:
.LBE14:
.LBE13:
	.loc 1 149 0
	movq	(%r15,%rbp), %rbx	# MEM[symbol: find_strings, index: ivtmp.38_24, offset: 0B], D.3038
	testq	%rbx, %rbx	# D.3038
	je	.L36	#,
.LVL37:
.L33:
	.loc 1 151 0
	movq	%rbx, %rdi	# D.3038,
	call	init_search	#
.LVL38:
	.loc 1 152 0
	movq	(%r14,%rbp), %r12	# MEM[symbol: search_strings, index: ivtmp.38_29, offset: 0B], D.3038
	movq	%r12, %rdi	# D.3038,
	call	strsearch	#
.LVL39:
	.loc 1 153 0
	testq	%rax, %rax	# here
	.loc 1 152 0
	movq	%rax, %r13	#, here
.LVL40:
	.loc 1 153 0
	jne	.L30	#,
.LVL41:
.LBB15:
.LBB10:
	.loc 2 104 0
	movq	%r12, %r8	# D.3038,
	movl	$.LC108, %ecx	#,
	movq	%rbx, %rdx	# D.3038,
	movl	$.LC109, %esi	#,
	movl	$1, %edi	#,
	xorl	%eax, %eax	#
.LVL42:
	call	__printf_chk	#
.LVL43:
	jmp	.L34	#
.LVL44:
	.p2align 4,,10
	.p2align 3
.L36:
.LBE10:
.LBE15:
	.loc 1 161 0
	addq	$936, %rsp	#,
	.cfi_def_cfa_offset 56
	xorl	%eax, %eax	#
	popq	%rbx	#
	.cfi_def_cfa_offset 48
	popq	%rbp	#
	.cfi_def_cfa_offset 40
	popq	%r12	#
	.cfi_def_cfa_offset 32
	popq	%r13	#
	.cfi_def_cfa_offset 24
	popq	%r14	#
	.cfi_def_cfa_offset 16
	popq	%r15	#
	.cfi_def_cfa_offset 8
	ret
	.cfi_endproc
.LFE50:
	.size	main, .-main
	.local	findme
	.comm	findme,8,8
	.local	len
	.comm	len,8,8
	.local	table
	.comm	table,2048,32
	.text
.Letext0:
	.file 4 "/usr/lib/gcc/x86_64-linux-gnu/4.8/include/stddef.h"
	.file 5 "/usr/include/x86_64-linux-gnu/bits/types.h"
	.file 6 "/usr/include/libio.h"
	.file 7 "/usr/include/stdio.h"
	.file 8 "/usr/include/string.h"
	.section	.note.GNU-stack,"",@progbits
